; Function Attrs: mustprogress nofree norecurse nosync nounwind willreturn memory(read, inaccessiblemem: none) uwtable
define i64 @_ZNK10OpenSubdiv6v3_6_03Far10PatchTable22GetPatchFVarPatchParamERKNS2_11PatchHandleEi(ptr nocapture noundef nonnull readonly align 8 dereferenceable(273) %0, ptr nocapture noundef nonnull readonly align 4 dereferenceable(12) %1, i32 noundef %2) local_unnamed_addr #6 align 2 {
  %4 = getelementptr inbounds nuw i8, ptr %1, i64 4
  %5 = load i32, ptr %4, align 4
  %6 = getelementptr inbounds nuw i8, ptr %0, i64 176
  %7 = sext i32 %2 to i64
  %8 = load ptr, ptr %6, align 8
  %9 = getelementptr inbounds %"struct.OpenSubdiv::v3_6_0::Far::PatchTable::FVarPatchChannel", ptr %8, i64 %7, i32 5
  %10 = sext i32 %5 to i64
  %11 = load ptr, ptr %9, align 8
  %12 = getelementptr inbounds %"struct.OpenSubdiv::v3_6_0::Far::PatchParam", ptr %11, i64 %10
  %.sroa.0.0.copyload.i = load i64, ptr %12, align 4
  ret i64 %.sroa.0.0.copyload.i
}